; Function Attrs: nounwind uwtable
define ptr @l_Lake_recFetchMemoize___rarg___lambda__4(ptr noundef %0, ptr noundef %1, ptr noundef %2, ptr noundef %3, ptr noundef %4, ptr noundef %5, ptr noundef %6, ptr noundef %7, ptr noundef %8) #0 {
  tail call void @lean_inc_heartbeat() #3
  %10 = tail call noalias ptr @mi_malloc_small(i64 noundef 48) #3
  %11 = icmp eq ptr %10, null
  br i1 %11, label %12, label %lean_alloc_closure.exit

12:                                               ; preds = %9
  tail call void @lean_internal_panic_out_of_memory() #4
  unreachable

lean_alloc_closure.exit:                          ; preds = %9
  %13 = getelementptr inbounds nuw i8, ptr %10, i64 4
  store i32 1, ptr %10, align 4, !tbaa !4
  store i32 -184549328, ptr %13, align 4
  %14 = getelementptr inbounds nuw i8, ptr %10, i64 8
  store ptr @l_Lake_recFetchAcyclic___rarg___lambda__1, ptr %14, align 8, !tbaa !10
  %15 = getelementptr inbounds nuw i8, ptr %10, i64 16
  store i16 4, ptr %15, align 8, !tbaa !12
  %16 = getelementptr inbounds nuw i8, ptr %10, i64 18
  store i16 3, ptr %16, align 2, !tbaa !12
  %17 = getelementptr inbounds nuw i8, ptr %10, i64 24
  store ptr %0, ptr %17, align 8, !tbaa !10
  %18 = getelementptr inbounds nuw i8, ptr %10, i64 32
  store ptr %1, ptr %18, align 8, !tbaa !10
  %19 = getelementptr inbounds nuw i8, ptr %10, i64 40
  store ptr %8, ptr %19, align 8, !tbaa !10
  %20 = tail call ptr @lean_apply_2(ptr noundef %2, ptr noundef %3, ptr noundef nonnull %10) #3
  %21 = getelementptr inbounds nuw i8, ptr %4, i64 8
  %22 = load ptr, ptr %21, align 8, !tbaa !10
  %23 = ptrtoint ptr %22 to i64
  %24 = and i64 %23, 1
  %.not = icmp eq i64 %24, 0
  br i1 %.not, label %25, label %lean_inc.exit30

25:                                               ; preds = %lean_alloc_closure.exit
  %.val.i = load i32, ptr %22, align 4, !tbaa !4
  %26 = icmp sgt i32 %.val.i, 0
  br i1 %26, label %27, label %29, !prof !9

27:                                               ; preds = %25
  %28 = add nuw i32 %.val.i, 1
  store i32 %28, ptr %22, align 4, !tbaa !4
  br label %lean_inc.exit30

29:                                               ; preds = %25
  %.not.i = icmp eq i32 %.val.i, 0
  br i1 %.not.i, label %lean_inc.exit30, label %30

30:                                               ; preds = %29
  tail call void @lean_inc_ref_cold(ptr noundef nonnull %22) #3
  br label %lean_inc.exit30

lean_inc.exit30:                                  ; preds = %30, %29, %27, %lean_alloc_closure.exit
  %31 = ptrtoint ptr %5 to i64
  %32 = and i64 %31, 1
  %.not38 = icmp eq i64 %32, 0
  br i1 %.not38, label %33, label %lean_inc.exit29

33:                                               ; preds = %lean_inc.exit30
  %.val.i31 = load i32, ptr %5, align 4, !tbaa !4
  %34 = icmp sgt i32 %.val.i31, 0
  br i1 %34, label %35, label %37, !prof !9

35:                                               ; preds = %33
  %36 = add nuw i32 %.val.i31, 1
  store i32 %36, ptr %5, align 4, !tbaa !4
  br label %lean_inc.exit29

37:                                               ; preds = %33
  %.not.i32 = icmp eq i32 %.val.i31, 0
  br i1 %.not.i32, label %lean_inc.exit29, label %38

38:                                               ; preds = %37
  tail call void @lean_inc_ref_cold(ptr noundef nonnull %5) #3
  br label %lean_inc.exit29

lean_inc.exit29:                                  ; preds = %38, %37, %35, %lean_inc.exit30
  %39 = tail call ptr @lean_apply_1(ptr noundef %22, ptr noundef %5) #3
  %40 = ptrtoint ptr %7 to i64
  %41 = and i64 %40, 1
  %.not39 = icmp eq i64 %41, 0
  br i1 %.not39, label %42, label %lean_inc.exit

42:                                               ; preds = %lean_inc.exit29
  %.val.i34 = load i32, ptr %7, align 4, !tbaa !4
  %43 = icmp sgt i32 %.val.i34, 0
  br i1 %43, label %44, label %46, !prof !9

44:                                               ; preds = %42
  %45 = add nuw i32 %.val.i34, 1
  store i32 %45, ptr %7, align 4, !tbaa !4
  br label %lean_inc.exit

46:                                               ; preds = %42
  %.not.i35 = icmp eq i32 %.val.i34, 0
  br i1 %.not.i35, label %lean_inc.exit, label %47

47:                                               ; preds = %46
  tail call void @lean_inc_ref_cold(ptr noundef nonnull %7) #3
  br label %lean_inc.exit

lean_inc.exit:                                    ; preds = %47, %46, %44, %lean_inc.exit29
  tail call void @lean_inc_heartbeat() #3
  %48 = tail call noalias ptr @mi_malloc_small(i64 noundef 64) #3
  %49 = icmp eq ptr %48, null
  br i1 %49, label %50, label %lean_alloc_closure.exit37

50:                                               ; preds = %lean_inc.exit
  tail call void @lean_internal_panic_out_of_memory() #4
  unreachable

lean_alloc_closure.exit37:                        ; preds = %lean_inc.exit
  %51 = getelementptr inbounds nuw i8, ptr %48, i64 4
  store i32 1, ptr %48, align 4, !tbaa !4
  store i32 -184549312, ptr %51, align 4
  %52 = getelementptr inbounds nuw i8, ptr %48, i64 8
  store ptr @l_Lake_recFetchMemoize___rarg___lambda__3, ptr %52, align 8, !tbaa !10
  %53 = getelementptr inbounds nuw i8, ptr %48, i64 16
  store i16 6, ptr %53, align 8, !tbaa !12
  %54 = getelementptr inbounds nuw i8, ptr %48, i64 18
  store i16 5, ptr %54, align 2, !tbaa !12
  %55 = getelementptr inbounds nuw i8, ptr %48, i64 24
  store ptr %4, ptr %55, align 8, !tbaa !10
  %56 = getelementptr inbounds nuw i8, ptr %48, i64 32
  store ptr %5, ptr %56, align 8, !tbaa !10
  %57 = getelementptr inbounds nuw i8, ptr %48, i64 40
  store ptr %6, ptr %57, align 8, !tbaa !10
  %58 = getelementptr inbounds nuw i8, ptr %48, i64 48
  store ptr %7, ptr %58, align 8, !tbaa !10
  %59 = getelementptr inbounds nuw i8, ptr %48, i64 56
  store ptr %20, ptr %59, align 8, !tbaa !10
  %60 = tail call ptr @lean_apply_4(ptr noundef %7, ptr noundef nonnull inttoptr (i64 1 to ptr), ptr noundef nonnull inttoptr (i64 1 to ptr), ptr noundef %39, ptr noundef nonnull %48) #3
  ret ptr %60
}